; Function Attrs: mustprogress nofree norecurse nosync nounwind sspstrong willreturn memory(argmem: read) uwtable
define dso_local i64 @rb_parser_st_memsize(ptr noundef readonly captures(none) %0) local_unnamed_addr #5 {
  %2 = getelementptr inbounds nuw i8, ptr %0, i64 24
  %3 = load ptr, ptr %2, align 8, !tbaa !23
  %4 = icmp eq ptr %3, null
  %.val3.pre = load i8, ptr %0, align 8, !tbaa !17
  %.pre = zext i8 %.val3.pre to i64
  br i1 %4, label %._crit_edge, label %5

5:                                                ; preds = %1
  %6 = getelementptr [63 x %struct.st_features], ptr @features, i64 0, i64 %.pre, i32 3
  %7 = load i64, ptr %6, align 8, !tbaa !24
  %8 = shl i64 %7, 3
  %9 = add i64 %8, 56
  br label %._crit_edge

._crit_edge:                                      ; preds = %1, %5
  %10 = phi i64 [ %9, %5 ], [ 56, %1 ]
  %11 = shl i64 24, %.pre
  %12 = add i64 %11, %10
  ret i64 %12
}